target datalayout = "e-m:e-p270:32:32-p271:32:32-p272:64:64-i64:64-i128:128-f80:128-n8:16:32:64-S128"
target triple = "x86_64-pc-linux-gnu"

%"struct.pxrInternal_v0_24__pxrReserved__::TfDebug::_Node" = type { %"struct.std::atomic.54" }
%"struct.std::atomic.54" = type { i32 }
%"class.pxrInternal_v0_24__pxrReserved__::TfEnum" = type <{ ptr, i32, [4 x i8] }>

@.str.23 = private unnamed_addr constant [28 x i8] c"TF_LOG_STACK_TRACE_ON_ERROR\00", align 1
@.str.24 = private unnamed_addr constant [32 x i8] c"log stack traces for all errors\00", align 1
@.str.25 = private unnamed_addr constant [30 x i8] c"TF_LOG_STACK_TRACE_ON_WARNING\00", align 1
@.str.26 = private unnamed_addr constant [34 x i8] c"log stack traces for all warnings\00", align 1
@.str.27 = private unnamed_addr constant [23 x i8] c"TF_ERROR_MARK_TRACKING\00", align 1
@.str.28 = private unnamed_addr constant [89 x i8] c"capture stack traces at TfErrorMark ctor/dtor, enable TfReportActiveMarks debugging API.\00", align 1
@.str.29 = private unnamed_addr constant [37 x i8] c"TF_PRINT_ALL_POSTED_ERRORS_TO_STDERR\00", align 1
@.str.30 = private unnamed_addr constant [145 x i8] c"print all posted errors immediately, meaning that even errors that are expected and handled will be printed, producing possibly confusing output\00", align 1
@_ZN32pxrInternal_v0_24__pxrReserved__7TfDebug5_DataINS_39TF_LOG_STACK_TRACE_ON_ERROR__DebugCodesEE5nodesE = linkonce_odr global [4 x %"struct.pxrInternal_v0_24__pxrReserved__::TfDebug::_Node"] zeroinitializer, comdat, align 16

; Function Attrs: mustprogress nounwind uwtable
define linkonce_odr noundef nonnull align 4 dereferenceable(4) ptr @_ZN32pxrInternal_v0_24__pxrReserved__7TfDebug8_GetNodeINS_39TF_LOG_STACK_TRACE_ON_ERROR__DebugCodesEEERNS0_5_NodeET_(i32 noundef %0) #1 comdat align 2 {
  %2 = alloca i32, align 4
  store i32 %0, ptr %2, align 4
  %3 = load i32, ptr %2, align 4
  %4 = sext i32 %3 to i64
  %5 = getelementptr inbounds [4 x %"struct.pxrInternal_v0_24__pxrReserved__::TfDebug::_Node"], ptr @_ZN32pxrInternal_v0_24__pxrReserved__7TfDebug5_DataINS_39TF_LOG_STACK_TRACE_ON_ERROR__DebugCodesEE5nodesE, i64 0, i64 %4
  ret ptr %5
}

; Function Attrs: mustprogress uwtable
define linkonce_odr void @_ZN32pxrInternal_v0_24__pxrReserved__7TfDebug20_RegisterDebugSymbolINS_39TF_LOG_STACK_TRACE_ON_ERROR__DebugCodesEEEvT_PKcS5_(i32 noundef %0, ptr noundef %1, ptr noundef %2) #0 comdat align 2 {
  %4 = alloca i32, align 4
  %5 = alloca ptr, align 8
  %6 = alloca ptr, align 8
  %7 = alloca i32, align 4
  %8 = alloca i32, align 4
  store i32 %0, ptr %4, align 4
  store ptr %1, ptr %5, align 8
  store ptr %2, ptr %6, align 8
  %9 = load i32, ptr %4, align 4
  store i32 %9, ptr %7, align 4
  store i32 4, ptr %8, align 4
  %10 = load i32, ptr %7, align 4
  %11 = icmp slt i32 %10, 0
  br i1 %11, label %15, label %12

12:                                               ; preds = %3
  %13 = load i32, ptr %7, align 4
  %14 = icmp sge i32 %13, 4
  br label %15

15:                                               ; preds = %12, %3
  %16 = phi i1 [ true, %3 ], [ %14, %12 ]
  br i1 %16, label %17, label %19

17:                                               ; preds = %15
  %18 = load ptr, ptr %5, align 8
  call void @_ZN32pxrInternal_v0_24__pxrReserved__7TfDebug27_ComplainAboutInvalidSymbolEPKc(ptr noundef %18)
  br label %24

19:                                               ; preds = %15
  %20 = load i32, ptr %4, align 4
  %21 = call noundef nonnull align 4 dereferenceable(4) ptr @_ZN32pxrInternal_v0_24__pxrReserved__7TfDebug8_GetNodeINS_39TF_LOG_STACK_TRACE_ON_ERROR__DebugCodesEEERNS0_5_NodeET_(i32 noundef %20)
  %22 = load ptr, ptr %5, align 8
  %23 = load ptr, ptr %6, align 8
  call void @_ZN32pxrInternal_v0_24__pxrReserved__7TfDebug24_RegisterDebugSymbolImplEPNS0_5_NodeEPKcS4_(ptr noundef %21, ptr noundef %22, ptr noundef %23)
  br label %24

24:                                               ; preds = %19, %17
  ret void
}

; Function Attrs: mustprogress nounwind uwtable
define linkonce_odr noundef ptr @_ZN32pxrInternal_v0_24__pxrReserved__6TfEnum10_NameIdentEPKc(ptr noundef %0) #1 comdat align 2 {
  %2 = alloca ptr, align 8
  store ptr %0, ptr %2, align 8
  %3 = load ptr, ptr %2, align 8
  ret ptr %3
}

; Function Attrs: mustprogress nounwind uwtable
define linkonce_odr void @_ZN32pxrInternal_v0_24__pxrReserved__6TfEnumC2INS_39TF_LOG_STACK_TRACE_ON_ERROR__DebugCodesEEET_PNSt9enable_ifIXsr3std7is_enumIS3_EE5valueEvE4typeE(ptr noundef nonnull align 8 dereferenceable(12) %0, i32 noundef %1, ptr noundef %2) unnamed_addr #1 comdat align 2 {
  %4 = alloca ptr, align 8
  %5 = alloca i32, align 4
  %6 = alloca ptr, align 8
  store ptr %0, ptr %4, align 8
  store i32 %1, ptr %5, align 4
  store ptr %2, ptr %6, align 8
  %7 = load ptr, ptr %4, align 8
  %8 = getelementptr inbounds nuw %"class.pxrInternal_v0_24__pxrReserved__::TfEnum", ptr %7, i32 0, i32 0
  store ptr @_ZTIN32pxrInternal_v0_24__pxrReserved__39TF_LOG_STACK_TRACE_ON_ERROR__DebugCodesE, ptr %8, align 8
  %9 = getelementptr inbounds nuw %"class.pxrInternal_v0_24__pxrReserved__::TfEnum", ptr %7, i32 0, i32 1
  %10 = load i32, ptr %5, align 4
  store i32 %10, ptr %9, align 8
  ret void
}

; Function Attrs: mustprogress uwtable
define internal void @_ZN32pxrInternal_v0_24__pxrReserved__L22_Tf_RegistryFunction87EPNS_7TfDebugEPv(ptr noundef %0, ptr noundef %1) #0 {
  %3 = alloca ptr, align 8
  %4 = alloca ptr, align 8
  %5 = alloca %"class.pxrInternal_v0_24__pxrReserved__::TfEnum", align 8
  %6 = alloca %"class.pxrInternal_v0_24__pxrReserved__::TfEnum", align 8
  %7 = alloca %"class.pxrInternal_v0_24__pxrReserved__::TfEnum", align 8
  %8 = alloca %"class.pxrInternal_v0_24__pxrReserved__::TfEnum", align 8
  store ptr %0, ptr %3, align 8
  store ptr %1, ptr %4, align 8
  call void @_ZN32pxrInternal_v0_24__pxrReserved__6TfEnumC2INS_39TF_LOG_STACK_TRACE_ON_ERROR__DebugCodesEEET_PNSt9enable_ifIXsr3std7is_enumIS3_EE5valueEvE4typeE(ptr noundef nonnull align 8 dereferenceable(12) %5, i32 noundef 0, ptr noundef null)
  %9 = call noundef ptr @_ZN32pxrInternal_v0_24__pxrReserved__6TfEnum10_NameIdentEPKc(ptr noundef null)
  %10 = getelementptr inbounds nuw { ptr, i32 }, ptr %5, i32 0, i32 0
  %11 = load ptr, ptr %10, align 8
  %12 = getelementptr inbounds nuw { ptr, i32 }, ptr %5, i32 0, i32 1
  %13 = load i32, ptr %12, align 8
  call void @_ZN32pxrInternal_v0_24__pxrReserved__6TfEnum8_AddNameES0_PKcS2_(ptr %11, i32 %13, ptr noundef @.str.23, ptr noundef %9)
  call void @_ZN32pxrInternal_v0_24__pxrReserved__7TfDebug20_RegisterDebugSymbolINS_39TF_LOG_STACK_TRACE_ON_ERROR__DebugCodesEEEvT_PKcS5_(i32 noundef 0, ptr noundef @.str.23, ptr noundef @.str.24)
  call void @_ZN32pxrInternal_v0_24__pxrReserved__6TfEnumC2INS_39TF_LOG_STACK_TRACE_ON_ERROR__DebugCodesEEET_PNSt9enable_ifIXsr3std7is_enumIS3_EE5valueEvE4typeE(ptr noundef nonnull align 8 dereferenceable(12) %6, i32 noundef 1, ptr noundef null)
  %14 = call noundef ptr @_ZN32pxrInternal_v0_24__pxrReserved__6TfEnum10_NameIdentEPKc(ptr noundef null)
  %15 = getelementptr inbounds nuw { ptr, i32 }, ptr %6, i32 0, i32 0
  %16 = load ptr, ptr %15, align 8
  %17 = getelementptr inbounds nuw { ptr, i32 }, ptr %6, i32 0, i32 1
  %18 = load i32, ptr %17, align 8
  call void @_ZN32pxrInternal_v0_24__pxrReserved__6TfEnum8_AddNameES0_PKcS2_(ptr %16, i32 %18, ptr noundef @.str.25, ptr noundef %14)
  call void @_ZN32pxrInternal_v0_24__pxrReserved__7TfDebug20_RegisterDebugSymbolINS_39TF_LOG_STACK_TRACE_ON_ERROR__DebugCodesEEEvT_PKcS5_(i32 noundef 1, ptr noundef @.str.25, ptr noundef @.str.26)
  call void @_ZN32pxrInternal_v0_24__pxrReserved__6TfEnumC2INS_39TF_LOG_STACK_TRACE_ON_ERROR__DebugCodesEEET_PNSt9enable_ifIXsr3std7is_enumIS3_EE5valueEvE4typeE(ptr noundef nonnull align 8 dereferenceable(12) %7, i32 noundef 2, ptr noundef null)
  %19 = call noundef ptr @_ZN32pxrInternal_v0_24__pxrReserved__6TfEnum10_NameIdentEPKc(ptr noundef null)
  %20 = getelementptr inbounds nuw { ptr, i32 }, ptr %7, i32 0, i32 0
  %21 = load ptr, ptr %20, align 8
  %22 = getelementptr inbounds nuw { ptr, i32 }, ptr %7, i32 0, i32 1
  %23 = load i32, ptr %22, align 8
  call void @_ZN32pxrInternal_v0_24__pxrReserved__6TfEnum8_AddNameES0_PKcS2_(ptr %21, i32 %23, ptr noundef @.str.27, ptr noundef %19)
  call void @_ZN32pxrInternal_v0_24__pxrReserved__7TfDebug20_RegisterDebugSymbolINS_39TF_LOG_STACK_TRACE_ON_ERROR__DebugCodesEEEvT_PKcS5_(i32 noundef 2, ptr noundef @.str.27, ptr noundef @.str.28)
  call void @_ZN32pxrInternal_v0_24__pxrReserved__6TfEnumC2INS_39TF_LOG_STACK_TRACE_ON_ERROR__DebugCodesEEET_PNSt9enable_ifIXsr3std7is_enumIS3_EE5valueEvE4typeE(ptr noundef nonnull align 8 dereferenceable(12) %8, i32 noundef 3, ptr noundef null)
  %24 = call noundef ptr @_ZN32pxrInternal_v0_24__pxrReserved__6TfEnum10_NameIdentEPKc(ptr noundef null)
  %25 = getelementptr inbounds nuw { ptr, i32 }, ptr %8, i32 0, i32 0
  %26 = load ptr, ptr %25, align 8
  %27 = getelementptr inbounds nuw { ptr, i32 }, ptr %8, i32 0, i32 1
  %28 = load i32, ptr %27, align 8
  call void @_ZN32pxrInternal_v0_24__pxrReserved__6TfEnum8_AddNameES0_PKcS2_(ptr %26, i32 %28, ptr noundef @.str.29, ptr noundef %24)
  call void @_ZN32pxrInternal_v0_24__pxrReserved__7TfDebug20_RegisterDebugSymbolINS_39TF_LOG_STACK_TRACE_ON_ERROR__DebugCodesEEEvT_PKcS5_(i32 noundef 3, ptr noundef @.str.29, ptr noundef @.str.30)
  ret void
}