; Function Attrs: mustprogress uwtable
define internal void @_ZN32pxrInternal_v0_24__pxrReserved__L22_Tf_RegistryFunction87EPNS_7TfDebugEPv(ptr readnone captures(none) %0, ptr readnone captures(none) %1) #0 {
  tail call void @_ZN32pxrInternal_v0_24__pxrReserved__6TfEnum8_AddNameES0_PKcS2_(ptr nonnull @_ZTIN32pxrInternal_v0_24__pxrReserved__39TF_LOG_STACK_TRACE_ON_ERROR__DebugCodesE, i32 0, ptr noundef nonnull @.str.23, ptr noundef null)
  tail call void @_ZN32pxrInternal_v0_24__pxrReserved__7TfDebug24_RegisterDebugSymbolImplEPNS0_5_NodeEPKcS4_(ptr noundef nonnull @_ZN32pxrInternal_v0_24__pxrReserved__7TfDebug5_DataINS_39TF_LOG_STACK_TRACE_ON_ERROR__DebugCodesEE5nodesE, ptr noundef nonnull @.str.23, ptr noundef nonnull @.str.24)
  tail call void @_ZN32pxrInternal_v0_24__pxrReserved__6TfEnum8_AddNameES0_PKcS2_(ptr nonnull @_ZTIN32pxrInternal_v0_24__pxrReserved__39TF_LOG_STACK_TRACE_ON_ERROR__DebugCodesE, i32 1, ptr noundef nonnull @.str.25, ptr noundef null)
  tail call void @_ZN32pxrInternal_v0_24__pxrReserved__7TfDebug24_RegisterDebugSymbolImplEPNS0_5_NodeEPKcS4_(ptr noundef nonnull getelementptr inbounds nuw (i8, ptr @_ZN32pxrInternal_v0_24__pxrReserved__7TfDebug5_DataINS_39TF_LOG_STACK_TRACE_ON_ERROR__DebugCodesEE5nodesE, i64 4), ptr noundef nonnull @.str.25, ptr noundef nonnull @.str.26)
  tail call void @_ZN32pxrInternal_v0_24__pxrReserved__6TfEnum8_AddNameES0_PKcS2_(ptr nonnull @_ZTIN32pxrInternal_v0_24__pxrReserved__39TF_LOG_STACK_TRACE_ON_ERROR__DebugCodesE, i32 2, ptr noundef nonnull @.str.27, ptr noundef null)
  tail call void @_ZN32pxrInternal_v0_24__pxrReserved__7TfDebug24_RegisterDebugSymbolImplEPNS0_5_NodeEPKcS4_(ptr noundef nonnull getelementptr inbounds nuw (i8, ptr @_ZN32pxrInternal_v0_24__pxrReserved__7TfDebug5_DataINS_39TF_LOG_STACK_TRACE_ON_ERROR__DebugCodesEE5nodesE, i64 8), ptr noundef nonnull @.str.27, ptr noundef nonnull @.str.28)
  tail call void @_ZN32pxrInternal_v0_24__pxrReserved__6TfEnum8_AddNameES0_PKcS2_(ptr nonnull @_ZTIN32pxrInternal_v0_24__pxrReserved__39TF_LOG_STACK_TRACE_ON_ERROR__DebugCodesE, i32 3, ptr noundef nonnull @.str.29, ptr noundef null)
  tail call void @_ZN32pxrInternal_v0_24__pxrReserved__7TfDebug24_RegisterDebugSymbolImplEPNS0_5_NodeEPKcS4_(ptr noundef nonnull getelementptr inbounds nuw (i8, ptr @_ZN32pxrInternal_v0_24__pxrReserved__7TfDebug5_DataINS_39TF_LOG_STACK_TRACE_ON_ERROR__DebugCodesEE5nodesE, i64 12), ptr noundef nonnull @.str.29, ptr noundef nonnull @.str.30)
  ret void
}